; Function Attrs: nounwind uwtable
define hidden void @SDL_SetGPUViewport_REAL(ptr noundef readonly captures(address_is_null) %0, ptr noundef %1) local_unnamed_addr #0 {
  %3 = icmp eq ptr %0, null
  br i1 %3, label %4, label %6

4:                                                ; preds = %2
  %5 = tail call zeroext i1 (ptr, ...) @SDL_SetError_REAL(ptr noundef nonnull @.str.4, ptr noundef nonnull @.str.225) #7
  br label %.thread

6:                                                ; preds = %2
  %7 = icmp eq ptr %1, null
  br i1 %7, label %8, label %10

8:                                                ; preds = %6
  %9 = tail call zeroext i1 (ptr, ...) @SDL_SetError_REAL(ptr noundef nonnull @.str.4, ptr noundef nonnull @.str.227) #7
  br label %.thread

10:                                               ; preds = %6
  %11 = load ptr, ptr %0, align 8
  %12 = load ptr, ptr %11, align 8
  %13 = getelementptr inbounds nuw i8, ptr %12, i64 684
  %14 = load i8, ptr %13, align 4, !range !5, !noundef !6
  %15 = trunc nuw i8 %14 to i1
  br i1 %15, label %16, label %22

16:                                               ; preds = %10
  %17 = getelementptr inbounds nuw i8, ptr %0, i64 8
  %18 = load i8, ptr %17, align 8, !range !5, !noundef !6
  %19 = trunc nuw i8 %18 to i1
  br i1 %19, label %22, label %.preheader

.preheader:                                       ; preds = %16, %.preheader
  %20 = tail call i32 @SDL_ReportAssertion_REAL(ptr noundef nonnull @SDL_SetGPUViewport_REAL.sdl_assert_data, ptr noundef nonnull @__func__.SDL_SetGPUViewport_REAL, ptr noundef nonnull @.str.8, i32 noundef 1732) #7
  switch i32 %20, label %.thread [
    i32 0, label %.preheader
    i32 1, label %21
  ]

21:                                               ; preds = %.preheader
  tail call void @llvm.debugtrap()
  br label %.thread

22:                                               ; preds = %16, %10
  %23 = getelementptr inbounds nuw i8, ptr %12, i64 184
  %24 = load ptr, ptr %23, align 8
  tail call void %24(ptr noundef nonnull %11, ptr noundef nonnull %1) #7
  br label %.thread

.thread:                                          ; preds = %.preheader, %21, %22, %8, %4
  ret void
}